target datalayout = "e-m:e-p270:32:32-p271:32:32-p272:64:64-i64:64-i128:128-f80:128-n8:16:32:64-S128"
target triple = "x86_64-pc-linux-gnu"

%struct._ColorData = type { ptr, i32, ptr, ptr, ptr, ptr, ptr, ptr, ptr, ptr, i32, i32 }

; Function Attrs: nounwind uwtable
define void @make_dither_arrays(i32 noundef %0, ptr noundef %1) #0 {
  %3 = alloca i32, align 4
  %4 = alloca ptr, align 8
  %5 = alloca i32, align 4
  %6 = alloca i32, align 4
  %7 = alloca i32, align 4
  store i32 %0, ptr %3, align 4
  store ptr %1, ptr %4, align 8
  %8 = load i32, ptr %3, align 4
  %9 = sitofp i32 %8 to double
  %10 = call double @pow(double noundef %9, double noundef 0x3FD5555555555555) #7
  %11 = fdiv double 2.560000e+02, %10
  %12 = fptosi double %11 to i32
  store i32 %12, ptr %5, align 4
  %13 = load ptr, ptr %4, align 8
  %14 = getelementptr inbounds %struct._ColorData, ptr %13, i32 0, i32 6
  %15 = load ptr, ptr %14, align 8
  %16 = load i32, ptr %5, align 4
  %17 = sub nsw i32 0, %16
  %18 = sdiv i32 %17, 2
  %19 = load i32, ptr %5, align 4
  %20 = sdiv i32 %19, 2
  call void @make_sgn_ordered_dither_array(ptr noundef %15, i32 noundef %18, i32 noundef %20)
  %21 = load ptr, ptr %4, align 8
  %22 = getelementptr inbounds %struct._ColorData, ptr %21, i32 0, i32 7
  %23 = load ptr, ptr %22, align 8
  %24 = load i32, ptr %5, align 4
  %25 = sub nsw i32 0, %24
  %26 = sdiv i32 %25, 2
  %27 = load i32, ptr %5, align 4
  %28 = sdiv i32 %27, 2
  call void @make_sgn_ordered_dither_array(ptr noundef %23, i32 noundef %26, i32 noundef %28)
  %29 = load ptr, ptr %4, align 8
  %30 = getelementptr inbounds %struct._ColorData, ptr %29, i32 0, i32 8
  %31 = load ptr, ptr %30, align 8
  %32 = load i32, ptr %5, align 4
  %33 = sub nsw i32 0, %32
  %34 = sdiv i32 %33, 2
  %35 = load i32, ptr %5, align 4
  %36 = sdiv i32 %35, 2
  call void @make_sgn_ordered_dither_array(ptr noundef %31, i32 noundef %34, i32 noundef %36)
  store i32 0, ptr %5, align 4
  br label %37

37:                                               ; preds = %135, %2
  %38 = load i32, ptr %5, align 4
  %39 = icmp slt i32 %38, 8
  br i1 %39, label %40, label %138

40:                                               ; preds = %37
  store i32 0, ptr %6, align 4
  br label %41

41:                                               ; preds = %131, %40
  %42 = load i32, ptr %6, align 4
  %43 = icmp slt i32 %42, 4
  br i1 %43, label %44, label %134

44:                                               ; preds = %41
  %45 = load ptr, ptr %4, align 8
  %46 = getelementptr inbounds %struct._ColorData, ptr %45, i32 0, i32 7
  %47 = load ptr, ptr %46, align 8
  %48 = load i32, ptr %5, align 4
  %49 = shl i32 %48, 3
  %50 = load i32, ptr %6, align 4
  %51 = add nsw i32 %49, %50
  %52 = sext i32 %51 to i64
  %53 = getelementptr inbounds i8, ptr %47, i64 %52
  %54 = load i8, ptr %53, align 1
  %55 = sext i8 %54 to i32
  store i32 %55, ptr %7, align 4
  %56 = load ptr, ptr %4, align 8
  %57 = getelementptr inbounds %struct._ColorData, ptr %56, i32 0, i32 7
  %58 = load ptr, ptr %57, align 8
  %59 = load i32, ptr %5, align 4
  %60 = shl i32 %59, 3
  %61 = add nsw i32 %60, 7
  %62 = load i32, ptr %6, align 4
  %63 = sub nsw i32 %61, %62
  %64 = sext i32 %63 to i64
  %65 = getelementptr inbounds i8, ptr %58, i64 %64
  %66 = load i8, ptr %65, align 1
  %67 = load ptr, ptr %4, align 8
  %68 = getelementptr inbounds %struct._ColorData, ptr %67, i32 0, i32 7
  %69 = load ptr, ptr %68, align 8
  %70 = load i32, ptr %5, align 4
  %71 = shl i32 %70, 3
  %72 = load i32, ptr %6, align 4
  %73 = add nsw i32 %71, %72
  %74 = sext i32 %73 to i64
  %75 = getelementptr inbounds i8, ptr %69, i64 %74
  store i8 %66, ptr %75, align 1
  %76 = load i32, ptr %7, align 4
  %77 = trunc i32 %76 to i8
  %78 = load ptr, ptr %4, align 8
  %79 = getelementptr inbounds %struct._ColorData, ptr %78, i32 0, i32 7
  %80 = load ptr, ptr %79, align 8
  %81 = load i32, ptr %5, align 4
  %82 = shl i32 %81, 3
  %83 = add nsw i32 %82, 7
  %84 = load i32, ptr %6, align 4
  %85 = sub nsw i32 %83, %84
  %86 = sext i32 %85 to i64
  %87 = getelementptr inbounds i8, ptr %80, i64 %86
  store i8 %77, ptr %87, align 1
  %88 = load ptr, ptr %4, align 8
  %89 = getelementptr inbounds %struct._ColorData, ptr %88, i32 0, i32 8
  %90 = load ptr, ptr %89, align 8
  %91 = load i32, ptr %6, align 4
  %92 = shl i32 %91, 3
  %93 = load i32, ptr %5, align 4
  %94 = add nsw i32 %92, %93
  %95 = sext i32 %94 to i64
  %96 = getelementptr inbounds i8, ptr %90, i64 %95
  %97 = load i8, ptr %96, align 1
  %98 = sext i8 %97 to i32
  store i32 %98, ptr %7, align 4
  %99 = load ptr, ptr %4, align 8
  %100 = getelementptr inbounds %struct._ColorData, ptr %99, i32 0, i32 8
  %101 = load ptr, ptr %100, align 8
  %102 = load i32, ptr %6, align 4
  %103 = sub nsw i32 7, %102
  %104 = shl i32 %103, 3
  %105 = load i32, ptr %5, align 4
  %106 = add nsw i32 %104, %105
  %107 = sext i32 %106 to i64
  %108 = getelementptr inbounds i8, ptr %101, i64 %107
  %109 = load i8, ptr %108, align 1
  %110 = load ptr, ptr %4, align 8
  %111 = getelementptr inbounds %struct._ColorData, ptr %110, i32 0, i32 8
  %112 = load ptr, ptr %111, align 8
  %113 = load i32, ptr %6, align 4
  %114 = shl i32 %113, 3
  %115 = load i32, ptr %5, align 4
  %116 = add nsw i32 %114, %115
  %117 = sext i32 %116 to i64
  %118 = getelementptr inbounds i8, ptr %112, i64 %117
  store i8 %109, ptr %118, align 1
  %119 = load i32, ptr %7, align 4
  %120 = trunc i32 %119 to i8
  %121 = load ptr, ptr %4, align 8
  %122 = getelementptr inbounds %struct._ColorData, ptr %121, i32 0, i32 8
  %123 = load ptr, ptr %122, align 8
  %124 = load i32, ptr %6, align 4
  %125 = sub nsw i32 7, %124
  %126 = shl i32 %125, 3
  %127 = load i32, ptr %5, align 4
  %128 = add nsw i32 %126, %127
  %129 = sext i32 %128 to i64
  %130 = getelementptr inbounds i8, ptr %123, i64 %129
  store i8 %120, ptr %130, align 1
  br label %131

131:                                              ; preds = %44
  %132 = load i32, ptr %6, align 4
  %133 = add nsw i32 %132, 1
  store i32 %133, ptr %6, align 4
  br label %41, !llvm.loop !13

134:                                              ; preds = %41
  br label %135

135:                                              ; preds = %134
  %136 = load i32, ptr %5, align 4
  %137 = add nsw i32 %136, 1
  store i32 %137, ptr %5, align 4
  br label %37, !llvm.loop !14

138:                                              ; preds = %37
  ret void
}