; Function Attrs: nounwind uwtable
define void @make_dither_arrays(i32 noundef %0, ptr nocapture noundef readonly %1) local_unnamed_addr #4 {
  %3 = sitofp i32 %0 to double
  %4 = tail call double @pow(double noundef %3, double noundef 0x3FD5555555555555) #11
  %5 = fdiv double 2.560000e+02, %4
  %6 = fptosi double %5 to i32
  %7 = getelementptr inbounds i8, ptr %1, i64 48
  %8 = load ptr, ptr %7, align 8
  %9 = sdiv i32 %6, -2
  %10 = sdiv i32 %6, 2
  tail call void @make_sgn_ordered_dither_array(ptr noundef %8, i32 noundef %9, i32 noundef %10) #11
  %11 = getelementptr inbounds i8, ptr %1, i64 56
  %12 = load ptr, ptr %11, align 8
  tail call void @make_sgn_ordered_dither_array(ptr noundef %12, i32 noundef %9, i32 noundef %10) #11
  %13 = getelementptr inbounds i8, ptr %1, i64 64
  %14 = load ptr, ptr %13, align 8
  tail call void @make_sgn_ordered_dither_array(ptr noundef %14, i32 noundef %9, i32 noundef %10) #11
  br label %.preheader

.preheader:                                       ; preds = %2, %38
  %indvars.iv43 = phi i64 [ 0, %2 ], [ %indvars.iv.next44, %38 ]
  %15 = shl nuw nsw i64 %indvars.iv43, 3
  %16 = or disjoint i64 %15, 7
  %17 = add nuw nsw i64 %indvars.iv43, 56
  br label %18

18:                                               ; preds = %.preheader, %18
  %indvars.iv = phi i64 [ 0, %.preheader ], [ %indvars.iv.next, %18 ]
  %19 = load ptr, ptr %11, align 8
  %20 = or disjoint i64 %indvars.iv, %15
  %21 = getelementptr inbounds i8, ptr %19, i64 %20
  %22 = load i8, ptr %21, align 1
  %23 = sub nuw nsw i64 %16, %indvars.iv
  %24 = getelementptr inbounds i8, ptr %19, i64 %23
  %25 = load i8, ptr %24, align 1
  store i8 %25, ptr %21, align 1
  %26 = load ptr, ptr %11, align 8
  %27 = getelementptr inbounds i8, ptr %26, i64 %23
  store i8 %22, ptr %27, align 1
  %28 = load ptr, ptr %13, align 8
  %29 = shl nuw nsw i64 %indvars.iv, 3
  %30 = or disjoint i64 %29, %indvars.iv43
  %31 = getelementptr inbounds i8, ptr %28, i64 %30
  %32 = load i8, ptr %31, align 1
  %33 = sub nuw nsw i64 %17, %29
  %34 = getelementptr inbounds i8, ptr %28, i64 %33
  %35 = load i8, ptr %34, align 1
  store i8 %35, ptr %31, align 1
  %36 = load ptr, ptr %13, align 8
  %37 = getelementptr inbounds i8, ptr %36, i64 %33
  store i8 %32, ptr %37, align 1
  %indvars.iv.next = add nuw nsw i64 %indvars.iv, 1
  %exitcond.not = icmp eq i64 %indvars.iv.next, 4
  br i1 %exitcond.not, label %38, label %18, !llvm.loop !12

38:                                               ; preds = %18
  %indvars.iv.next44 = add nuw nsw i64 %indvars.iv43, 1
  %exitcond47.not = icmp eq i64 %indvars.iv.next44, 8
  br i1 %exitcond47.not, label %39, label %.preheader, !llvm.loop !13

39:                                               ; preds = %38
  ret void
}